(dp0
S'tearRate'
p1
(dp2
S'reduced'
p3
cnumpy.core.multiarray
scalar
p4
(cnumpy
dtype
p5
(S'S9'
p6
I0
I1
tp7
Rp8
(I3
S'|'
p9
NNNI9
I1
I0
tp10
bS'no lenses'
p11
tp12
Rp13
sS'normal'
p14
(dp15
S'astigmatic'
p16
(dp17
g4
(g5
(S'S3'
p18
I0
I1
tp19
Rp20
(I3
S'|'
p21
NNNI3
I1
I0
tp22
bS'yes'
p23
tp24
Rp25
(dp26
S'prescript'
p27
(dp28
g4
(g5
(S'S5'
p29
I0
I1
tp30
Rp31
(I3
S'|'
p32
NNNI5
I1
I0
tp33
bS'hyper'
p34
tp35
Rp36
(dp37
S'age'
p38
(dp39
g4
(g5
(S'S3'
p40
I0
I1
tp41
Rp42
(I3
S'|'
p43
NNNI3
I1
I0
tp44
bS'pre'
p45
tp46
Rp47
g4
(g5
(S'S9'
p48
I0
I1
tp49
Rp50
(I3
S'|'
p51
NNNI9
I1
I0
tp52
bS'no lenses'
p53
tp54
Rp55
sg4
(g5
(S'S10'
p56
I0
I1
tp57
Rp58
(I3
S'|'
p59
NNNI10
I1
I0
tp60
bS'presbyopic'
p61
tp62
Rp63
g4
(g5
(S'S9'
p64
I0
I1
tp65
Rp66
(I3
S'|'
p67
NNNI9
I1
I0
tp68
bS'no lenses'
p69
tp70
Rp71
sg4
(g5
(S'S5'
p72
I0
I1
tp73
Rp74
(I3
S'|'
p75
NNNI5
I1
I0
tp76
bS'young'
p77
tp78
Rp79
g4
(g5
(S'S4'
p80
I0
I1
tp81
Rp82
(I3
S'|'
p83
NNNI4
I1
I0
tp84
bS'hard'
p85
tp86
Rp87
sssg4
(g5
(S'S5'
p88
I0
I1
tp89
Rp90
(I3
S'|'
p91
NNNI5
I1
I0
tp92
bS'myope'
p93
tp94
Rp95
g4
(g5
(S'S4'
p96
I0
I1
tp97
Rp98
(I3
S'|'
p99
NNNI4
I1
I0
tp100
bS'hard'
p101
tp102
Rp103
sssg4
(g5
(S'S2'
p104
I0
I1
tp105
Rp106
(I3
S'|'
p107
NNNI2
I1
I0
tp108
bS'no'
p109
tp110
Rp111
(dp112
g38
(dp113
g4
(g5
(S'S3'
p114
I0
I1
tp115
Rp116
(I3
S'|'
p117
NNNI3
I1
I0
tp118
bS'pre'
p119
tp120
Rp121
g4
(g5
(S'S4'
p122
I0
I1
tp123
Rp124
(I3
S'|'
p125
NNNI4
I1
I0
tp126
bS'soft'
p127
tp128
Rp129
sg4
(g5
(S'S10'
p130
I0
I1
tp131
Rp132
(I3
S'|'
p133
NNNI10
I1
I0
tp134
bS'presbyopic'
p135
tp136
Rp137
(dp138
g27
(dp139
g4
(g5
(S'S5'
p140
I0
I1
tp141
Rp142
(I3
S'|'
p143
NNNI5
I1
I0
tp144
bS'hyper'
p145
tp146
Rp147
g4
(g5
(S'S4'
p148
I0
I1
tp149
Rp150
(I3
S'|'
p151
NNNI4
I1
I0
tp152
bS'soft'
p153
tp154
Rp155
sg4
(g5
(S'S5'
p156
I0
I1
tp157
Rp158
(I3
S'|'
p159
NNNI5
I1
I0
tp160
bS'myope'
p161
tp162
Rp163
g4
(g5
(S'S9'
p164
I0
I1
tp165
Rp166
(I3
S'|'
p167
NNNI9
I1
I0
tp168
bS'no lenses'
p169
tp170
Rp171
sssg4
(g5
(S'S5'
p172
I0
I1
tp173
Rp174
(I3
S'|'
p175
NNNI5
I1
I0
tp176
bS'young'
p177
tp178
Rp179
g4
(g5
(S'S4'
p180
I0
I1
tp181
Rp182
(I3
S'|'
p183
NNNI4
I1
I0
tp184
bS'soft'
p185
tp186
Rp187
ssssss.